; Function Attrs: nounwind uwtable
define internal range(i32 -2147483648, 2147483646) i32 @luaB_xpcall(ptr noundef %0) #0 {
  %2 = tail call i32 @lua_gettop(ptr noundef %0) #9
  tail call void @luaL_checktype(ptr noundef %0, i32 noundef 2, i32 noundef 6) #9
  tail call void @lua_pushboolean(ptr noundef %0, i32 noundef 1) #9
  tail call void @lua_pushvalue(ptr noundef %0, i32 noundef 1) #9
  tail call void @lua_rotate(ptr noundef %0, i32 noundef 3, i32 noundef 2) #9
  %3 = add nsw i32 %2, -2
  %4 = tail call i32 @lua_pcallk(ptr noundef %0, i32 noundef %3, i32 noundef -1, i32 noundef 2, i64 noundef 2, ptr noundef nonnull @finishpcall) #9
  %5 = icmp ugt i32 %4, 1
  br i1 %5, label %6, label %7, !prof !4

6:                                                ; preds = %1
  tail call void @lua_pushboolean(ptr noundef %0, i32 noundef 0) #9
  tail call void @lua_pushvalue(ptr noundef %0, i32 noundef -2) #9
  br label %finishpcall.exit

7:                                                ; preds = %1
  %8 = tail call i32 @lua_gettop(ptr noundef %0) #9
  %9 = add nsw i32 %8, -2
  br label %finishpcall.exit

finishpcall.exit:                                 ; preds = %6, %7
  %.0.i = phi i32 [ 2, %6 ], [ %9, %7 ]
  ret i32 %.0.i
}